; Function Attrs: nounwind sspstrong uwtable
define internal noundef i64 @rb_gzfile_set_sync(i64 noundef %0, i64 noundef returned %1) #0 {
  %3 = tail call ptr @rb_check_typeddata(i64 noundef %0, ptr noundef nonnull @gzfile_data_type) #18
  %4 = load i64, ptr %3, align 8, !tbaa !113
  %5 = and i64 %4, 1
  %.not.i = icmp eq i64 %5, 0
  br i1 %.not.i, label %6, label %get_gzfile.exit

6:                                                ; preds = %2
  %7 = load i64, ptr @cGzError, align 8, !tbaa !6
  tail call void (i64, ptr, ...) @rb_raise(i64 noundef %7, ptr noundef nonnull @.str.165) #19
  unreachable

get_gzfile.exit:                                  ; preds = %2
  %8 = and i64 %1, -5
  %.not = icmp eq i64 %8, 0
  %9 = and i64 %4, -129
  %masksel = select i1 %.not, i64 0, i64 128
  %storemerge = or disjoint i64 %9, %masksel
  store i64 %storemerge, ptr %3, align 8, !tbaa !113
  ret i64 %1
}